(lp0
(lp1
I0
aa(lp2
cnumpy.core.multiarray
scalar
p3
(cnumpy
dtype
p4
(S'i8'
p5
I0
I1
tp6
Rp7
(I3
S'<'
p8
NNNI-1
I-1
I0
tp9
bS'\x10Y\x00\x00\x00\x00\x00\x00'
p10
tp11
Rp12
aa(lp13
I0
aa(lp14
g3
(g7
S'P\xbd\x01\x00\x00\x00\x00\x00'
p15
tp16
Rp17
aa.